target datalayout = "e-m:e-p270:32:32-p271:32:32-p272:64:64-i64:64-i128:128-f80:128-n8:16:32:64-S128"
target triple = "x86_64-pc-linux-gnu"

%struct.job_step_info_t = type { i32, i32, ptr, ptr, ptr, i32, i32, i32, ptr, ptr, ptr, ptr, ptr, ptr, i32, i32, ptr, ptr, i64, ptr, i32, i64, i16, i32, %struct.slurm_step_id_msg, ptr, i32, i32, ptr, ptr, ptr, ptr, ptr, ptr, ptr, i32 }
%struct.slurm_step_id_msg = type { i64, i32, i32, i32 }

@now = internal global i64 0, align 8
@reverse_order = internal global i8 0, align 1

; Function Attrs: inlinehint nounwind uwtable
define internal i32 @_diff_time(i64 noundef %0, i64 noundef %1) #6 {
  %3 = alloca i32, align 4
  %4 = alloca i64, align 8
  %5 = alloca i64, align 8
  store i64 %0, ptr %4, align 8
  store i64 %1, ptr %5, align 8
  %6 = load i64, ptr %4, align 8
  %7 = load i64, ptr %5, align 8
  %8 = icmp sgt i64 %6, %7
  br i1 %8, label %9, label %10

9:                                                ; preds = %2
  store i32 1, ptr %3, align 4
  br label %16

10:                                               ; preds = %2
  %11 = load i64, ptr %4, align 8
  %12 = load i64, ptr %5, align 8
  %13 = icmp slt i64 %11, %12
  br i1 %13, label %14, label %15

14:                                               ; preds = %10
  store i32 -1, ptr %3, align 4
  br label %16

15:                                               ; preds = %10
  store i32 0, ptr %3, align 4
  br label %16

16:                                               ; preds = %15, %14, %9
  %17 = load i32, ptr %3, align 4
  ret i32 %17
}

; Function Attrs: nounwind uwtable
define internal void @_get_step_info_from_void(ptr noundef %0, ptr noundef %1, ptr noundef %2, ptr noundef %3) #0 {
  %5 = alloca ptr, align 8
  %6 = alloca ptr, align 8
  %7 = alloca ptr, align 8
  %8 = alloca ptr, align 8
  store ptr %0, ptr %5, align 8
  store ptr %1, ptr %6, align 8
  store ptr %2, ptr %7, align 8
  store ptr %3, ptr %8, align 8
  %9 = load ptr, ptr %7, align 8
  %10 = load ptr, ptr %9, align 8
  %11 = load ptr, ptr %5, align 8
  store ptr %10, ptr %11, align 8
  %12 = load ptr, ptr %8, align 8
  %13 = load ptr, ptr %12, align 8
  %14 = load ptr, ptr %6, align 8
  store ptr %13, ptr %14, align 8
  ret void
}

; Function Attrs: nounwind uwtable
define internal i32 @_sort_step_by_time_used(ptr noundef %0, ptr noundef %1) #0 {
  %3 = alloca ptr, align 8
  %4 = alloca ptr, align 8
  %5 = alloca i32, align 4
  %6 = alloca ptr, align 8
  %7 = alloca ptr, align 8
  %8 = alloca i64, align 8
  %9 = alloca i64, align 8
  store ptr %0, ptr %3, align 8
  store ptr %1, ptr %4, align 8
  call void @llvm.lifetime.start.p0(i64 4, ptr %5) #8
  call void @llvm.lifetime.start.p0(i64 8, ptr %6) #8
  call void @llvm.lifetime.start.p0(i64 8, ptr %7) #8
  call void @llvm.lifetime.start.p0(i64 8, ptr %8) #8
  call void @llvm.lifetime.start.p0(i64 8, ptr %9) #8
  %10 = load ptr, ptr %3, align 8
  %11 = load ptr, ptr %4, align 8
  call void @_get_step_info_from_void(ptr noundef %6, ptr noundef %7, ptr noundef %10, ptr noundef %11)
  %12 = load i64, ptr @now, align 8
  %13 = load ptr, ptr %6, align 8
  %14 = getelementptr inbounds nuw %struct.job_step_info_t, ptr %13, i32 0, i32 21
  %15 = load i64, ptr %14, align 8
  %16 = call double @difftime(i64 noundef %12, i64 noundef %15) #11
  %17 = fptosi double %16 to i64
  store i64 %17, ptr %8, align 8
  %18 = load i64, ptr @now, align 8
  %19 = load ptr, ptr %7, align 8
  %20 = getelementptr inbounds nuw %struct.job_step_info_t, ptr %19, i32 0, i32 21
  %21 = load i64, ptr %20, align 8
  %22 = call double @difftime(i64 noundef %18, i64 noundef %21) #11
  %23 = fptosi double %22 to i64
  store i64 %23, ptr %9, align 8
  %24 = load i64, ptr %8, align 8
  %25 = load i64, ptr %9, align 8
  %26 = call i32 @_diff_time(i64 noundef %24, i64 noundef %25)
  store i32 %26, ptr %5, align 4
  %27 = load i8, ptr @reverse_order, align 1, !range !11, !noundef !12
  %28 = trunc i8 %27 to i1
  br i1 %28, label %29, label %32

29:                                               ; preds = %2
  %30 = load i32, ptr %5, align 4
  %31 = sub nsw i32 0, %30
  store i32 %31, ptr %5, align 4
  br label %32

32:                                               ; preds = %29, %2
  %33 = load i32, ptr %5, align 4
  call void @llvm.lifetime.end.p0(i64 8, ptr %9) #8
  call void @llvm.lifetime.end.p0(i64 8, ptr %8) #8
  call void @llvm.lifetime.end.p0(i64 8, ptr %7) #8
  call void @llvm.lifetime.end.p0(i64 8, ptr %6) #8
  call void @llvm.lifetime.end.p0(i64 4, ptr %5) #8
  ret i32 %33
}