; Function Attrs: mustprogress nofree nosync nounwind willreturn memory(read, inaccessiblemem: none) uwtable
define internal range(i32 -1, 2) i32 @_sort_step_by_time_used(ptr noundef readonly captures(none) %0, ptr noundef readonly captures(none) %1) #8 {
  %.val = load ptr, ptr %0, align 8
  %3 = load ptr, ptr %1, align 8
  %4 = load i64, ptr @now, align 8
  %5 = getelementptr inbounds nuw i8, ptr %.val, i64 144
  %6 = load i64, ptr %5, align 8
  %7 = tail call double @difftime(i64 noundef %4, i64 noundef %6) #14
  %8 = fptosi double %7 to i64
  %9 = getelementptr inbounds nuw i8, ptr %3, i64 144
  %10 = load i64, ptr %9, align 8
  %11 = tail call double @difftime(i64 noundef %4, i64 noundef %10) #14
  %12 = fptosi double %11 to i64
  %.0.i = tail call range(i32 -1, 2) i32 @llvm.scmp.i32.i64(i64 %8, i64 %12)
  %.b5 = load i1, ptr @reverse_order, align 1
  %13 = sub nsw i32 0, %.0.i
  %spec.select = select i1 %.b5, i32 %13, i32 %.0.i
  ret i32 %spec.select
}